; ModuleID = 'source-C-CXX/57/569.cpp'
source_filename = "source-C-CXX/57/569.cpp"
target datalayout = "e-m:e-p270:32:32-p271:32:32-p272:64:64-i64:64-f80:128-n8:16:32:64-S128"
target triple = "x86_64-pc-linux-gnu"

%"class.std::ios_base::Init" = type { i8 }
%"class.std::basic_istream" = type { i32 (...)**, i64, %"class.std::basic_ios" }
%"class.std::basic_ios" = type { %"class.std::ios_base", %"class.std::basic_ostream"*, i8, i8, %"class.std::basic_streambuf"*, %"class.std::ctype"*, %"class.std::num_put"*, %"class.std::num_get"* }
%"class.std::ios_base" = type { i32 (...)**, i64, i64, i32, i32, i32, %"struct.std::ios_base::_Callback_list"*, %"struct.std::ios_base::_Words", [8 x %"struct.std::ios_base::_Words"], i32, %"struct.std::ios_base::_Words"*, %"class.std::locale" }
%"struct.std::ios_base::_Callback_list" = type { %"struct.std::ios_base::_Callback_list"*, void (i32, %"class.std::ios_base"*, i32)*, i32, i32 }
%"struct.std::ios_base::_Words" = type { i8*, i64 }
%"class.std::locale" = type { %"class.std::locale::_Impl"* }
%"class.std::locale::_Impl" = type { i32, %"class.std::locale::facet"**, i64, %"class.std::locale::facet"**, i8** }
%"class.std::locale::facet" = type <{ i32 (...)**, i32, [4 x i8] }>
%"class.std::basic_ostream" = type { i32 (...)**, %"class.std::basic_ios" }
%"class.std::basic_streambuf" = type { i32 (...)**, i8*, i8*, i8*, i8*, i8*, i8*, %"class.std::locale" }
%"class.std::ctype" = type <{ %"class.std::locale::facet.base", [4 x i8], %struct.__locale_struct*, i8, [7 x i8], i32*, i32*, i16*, i8, [256 x i8], [256 x i8], i8, [6 x i8] }>
%"class.std::locale::facet.base" = type <{ i32 (...)**, i32 }>
%struct.__locale_struct = type { [13 x %struct.__locale_data*], i16*, i32*, i32*, [13 x i8*] }
%struct.__locale_data = type opaque
%"class.std::num_put" = type { %"class.std::locale::facet.base", [4 x i8] }
%"class.std::num_get" = type { %"class.std::locale::facet.base", [4 x i8] }

@_ZStL8__ioinit = internal global %"class.std::ios_base::Init" zeroinitializer, align 1
@__dso_handle = external hidden global i8
@_ZSt3cin = external global %"class.std::basic_istream", align 8
@_ZSt4cout = external global %"class.std::basic_ostream", align 8
@llvm.global_ctors = appending global [1 x { i32, void ()*, i8* }] [{ i32, void ()*, i8* } { i32 65535, void ()* @_GLOBAL__sub_I_569.cpp, i8* null }]

declare void @_ZNSt8ios_base4InitC1Ev(%"class.std::ios_base::Init"* nonnull align 1 dereferenceable(1)) unnamed_addr #0

; Function Attrs: nounwind
declare void @_ZNSt8ios_base4InitD1Ev(%"class.std::ios_base::Init"* nonnull align 1 dereferenceable(1)) unnamed_addr #1

; Function Attrs: nofree nounwind
declare i32 @__cxa_atexit(void (i8*)*, i8*, i8*) local_unnamed_addr #2

; Function Attrs: mustprogress norecurse sspstrong uwtable
define dso_local i32 @main() local_unnamed_addr #3 {
  %1 = alloca i32, align 4
  %2 = alloca [81 x i8], align 16
  %3 = bitcast i32* %1 to i8*
  call void @llvm.lifetime.start.p0i8(i64 4, i8* nonnull %3) #8
  %4 = getelementptr inbounds [81 x i8], [81 x i8]* %2, i64 0, i64 0
  call void @llvm.lifetime.start.p0i8(i64 81, i8* nonnull %4) #8
  %5 = call nonnull align 8 dereferenceable(16) %"class.std::basic_istream"* @_ZNSirsERi(%"class.std::basic_istream"* nonnull align 8 dereferenceable(16) @_ZSt3cin, i32* nonnull align 4 dereferenceable(4) %1)
  %6 = load i8*, i8** bitcast (%"class.std::basic_istream"* @_ZSt3cin to i8**), align 8, !tbaa !5
  %7 = getelementptr i8, i8* %6, i64 -24
  %8 = bitcast i8* %7 to i64*
  %9 = load i64, i64* %8, align 8
  %10 = add nsw i64 %9, 240
  %11 = getelementptr inbounds i8, i8* bitcast (%"class.std::basic_istream"* @_ZSt3cin to i8*), i64 %10
  %12 = bitcast i8* %11 to %"class.std::ctype"**
  %13 = load %"class.std::ctype"*, %"class.std::ctype"** %12, align 8, !tbaa !8
  %14 = icmp eq %"class.std::ctype"* %13, null
  br i1 %14, label %15, label %16

15:                                               ; preds = %0
  call void @_ZSt16__throw_bad_castv() #9
  unreachable

16:                                               ; preds = %0
  %17 = getelementptr inbounds %"class.std::ctype", %"class.std::ctype"* %13, i64 0, i32 8
  %18 = load i8, i8* %17, align 8, !tbaa !13
  %19 = icmp eq i8 %18, 0
  br i1 %19, label %23, label %20

20:                                               ; preds = %16
  %21 = getelementptr inbounds %"class.std::ctype", %"class.std::ctype"* %13, i64 0, i32 9, i64 10
  %22 = load i8, i8* %21, align 1, !tbaa !15
  br label %29

23:                                               ; preds = %16
  call void @_ZNKSt5ctypeIcE13_M_widen_initEv(%"class.std::ctype"* nonnull align 8 dereferenceable(570) %13)
  %24 = bitcast %"class.std::ctype"* %13 to i8 (%"class.std::ctype"*, i8)***
  %25 = load i8 (%"class.std::ctype"*, i8)**, i8 (%"class.std::ctype"*, i8)*** %24, align 8, !tbaa !5
  %26 = getelementptr inbounds i8 (%"class.std::ctype"*, i8)*, i8 (%"class.std::ctype"*, i8)** %25, i64 6
  %27 = load i8 (%"class.std::ctype"*, i8)*, i8 (%"class.std::ctype"*, i8)** %26, align 8
  %28 = call signext i8 %27(%"class.std::ctype"* nonnull align 8 dereferenceable(570) %13, i8 signext 10)
  br label %29

29:                                               ; preds = %20, %23
  %30 = phi i8 [ %22, %20 ], [ %28, %23 ]
  %31 = call nonnull align 8 dereferenceable(16) %"class.std::basic_istream"* @_ZNSi7getlineEPclc(%"class.std::basic_istream"* nonnull align 8 dereferenceable(16) @_ZSt3cin, i8* nonnull %4, i64 81, i8 signext %30)
  %32 = load i32, i32* %1, align 4, !tbaa !16
  %33 = icmp slt i32 %32, 1
  br i1 %33, label %124, label %34

34:                                               ; preds = %29, %117
  %35 = phi i32 [ %121, %117 ], [ 1, %29 ]
  %36 = load i8*, i8** bitcast (%"class.std::basic_istream"* @_ZSt3cin to i8**), align 8, !tbaa !5
  %37 = getelementptr i8, i8* %36, i64 -24
  %38 = bitcast i8* %37 to i64*
  %39 = load i64, i64* %38, align 8
  %40 = add nsw i64 %39, 240
  %41 = getelementptr inbounds i8, i8* bitcast (%"class.std::basic_istream"* @_ZSt3cin to i8*), i64 %40
  %42 = bitcast i8* %41 to %"class.std::ctype"**
  %43 = load %"class.std::ctype"*, %"class.std::ctype"** %42, align 8, !tbaa !8
  %44 = icmp eq %"class.std::ctype"* %43, null
  br i1 %44, label %45, label %46

45:                                               ; preds = %34
  call void @_ZSt16__throw_bad_castv() #9
  unreachable

46:                                               ; preds = %34
  %47 = getelementptr inbounds %"class.std::ctype", %"class.std::ctype"* %43, i64 0, i32 8
  %48 = load i8, i8* %47, align 8, !tbaa !13
  %49 = icmp eq i8 %48, 0
  br i1 %49, label %53, label %50

50:                                               ; preds = %46
  %51 = getelementptr inbounds %"class.std::ctype", %"class.std::ctype"* %43, i64 0, i32 9, i64 10
  %52 = load i8, i8* %51, align 1, !tbaa !15
  br label %59

53:                                               ; preds = %46
  call void @_ZNKSt5ctypeIcE13_M_widen_initEv(%"class.std::ctype"* nonnull align 8 dereferenceable(570) %43)
  %54 = bitcast %"class.std::ctype"* %43 to i8 (%"class.std::ctype"*, i8)***
  %55 = load i8 (%"class.std::ctype"*, i8)**, i8 (%"class.std::ctype"*, i8)*** %54, align 8, !tbaa !5
  %56 = getelementptr inbounds i8 (%"class.std::ctype"*, i8)*, i8 (%"class.std::ctype"*, i8)** %55, i64 6
  %57 = load i8 (%"class.std::ctype"*, i8)*, i8 (%"class.std::ctype"*, i8)** %56, align 8
  %58 = call signext i8 %57(%"class.std::ctype"* nonnull align 8 dereferenceable(570) %43, i8 signext 10)
  br label %59

59:                                               ; preds = %50, %53
  %60 = phi i8 [ %52, %50 ], [ %58, %53 ]
  %61 = call nonnull align 8 dereferenceable(16) %"class.std::basic_istream"* @_ZNSi7getlineEPclc(%"class.std::basic_istream"* nonnull align 8 dereferenceable(16) @_ZSt3cin, i8* nonnull %4, i64 81, i8 signext %60)
  %62 = call i64 @strlen(i8* noundef nonnull %4) #10
  %63 = load i8, i8* %4, align 16, !tbaa !15
  %64 = icmp eq i8 %63, 95
  %65 = and i8 %63, -33
  %66 = add i8 %65, -65
  %67 = icmp ult i8 %66, 26
  %68 = or i1 %67, %64
  br i1 %68, label %69, label %89

69:                                               ; preds = %59
  %70 = trunc i64 %62 to i32
  %71 = icmp sgt i32 %70, 1
  br i1 %71, label %72, label %89

72:                                               ; preds = %69
  %73 = and i64 %62, 4294967295
  br label %76

74:                                               ; preds = %76
  %75 = icmp eq i64 %88, %73
  br i1 %75, label %89, label %76, !llvm.loop !18

76:                                               ; preds = %72, %74
  %77 = phi i64 [ 1, %72 ], [ %88, %74 ]
  %78 = getelementptr inbounds [81 x i8], [81 x i8]* %2, i64 0, i64 %77
  %79 = load i8, i8* %78, align 1, !tbaa !15
  %80 = icmp eq i8 %79, 95
  %81 = and i8 %79, -33
  %82 = add i8 %81, -65
  %83 = icmp ult i8 %82, 26
  %84 = or i1 %83, %80
  %85 = add i8 %79, -48
  %86 = icmp ult i8 %85, 10
  %87 = or i1 %84, %86
  %88 = add nuw nsw i64 %77, 1
  br i1 %87, label %74, label %89

89:                                               ; preds = %74, %76, %69, %59
  %90 = phi i32 [ 0, %59 ], [ 1, %69 ], [ 1, %74 ], [ 0, %76 ]
  %91 = call nonnull align 8 dereferenceable(8) %"class.std::basic_ostream"* @_ZNSolsEi(%"class.std::basic_ostream"* nonnull align 8 dereferenceable(8) @_ZSt4cout, i32 %90)
  %92 = bitcast %"class.std::basic_ostream"* %91 to i8**
  %93 = load i8*, i8** %92, align 8, !tbaa !5
  %94 = getelementptr i8, i8* %93, i64 -24
  %95 = bitcast i8* %94 to i64*
  %96 = load i64, i64* %95, align 8
  %97 = bitcast %"class.std::basic_ostream"* %91 to i8*
  %98 = add nsw i64 %96, 240
  %99 = getelementptr inbounds i8, i8* %97, i64 %98
  %100 = bitcast i8* %99 to %"class.std::ctype"**
  %101 = load %"class.std::ctype"*, %"class.std::ctype"** %100, align 8, !tbaa !8
  %102 = icmp eq %"class.std::ctype"* %101, null
  br i1 %102, label %103, label %104

103:                                              ; preds = %89
  call void @_ZSt16__throw_bad_castv() #9
  unreachable

104:                                              ; preds = %89
  %105 = getelementptr inbounds %"class.std::ctype", %"class.std::ctype"* %101, i64 0, i32 8
  %106 = load i8, i8* %105, align 8, !tbaa !13
  %107 = icmp eq i8 %106, 0
  br i1 %107, label %111, label %108

108:                                              ; preds = %104
  %109 = getelementptr inbounds %"class.std::ctype", %"class.std::ctype"* %101, i64 0, i32 9, i64 10
  %110 = load i8, i8* %109, align 1, !tbaa !15
  br label %117

111:                                              ; preds = %104
  call void @_ZNKSt5ctypeIcE13_M_widen_initEv(%"class.std::ctype"* nonnull align 8 dereferenceable(570) %101)
  %112 = bitcast %"class.std::ctype"* %101 to i8 (%"class.std::ctype"*, i8)***
  %113 = load i8 (%"class.std::ctype"*, i8)**, i8 (%"class.std::ctype"*, i8)*** %112, align 8, !tbaa !5
  %114 = getelementptr inbounds i8 (%"class.std::ctype"*, i8)*, i8 (%"class.std::ctype"*, i8)** %113, i64 6
  %115 = load i8 (%"class.std::ctype"*, i8)*, i8 (%"class.std::ctype"*, i8)** %114, align 8
  %116 = call signext i8 %115(%"class.std::ctype"* nonnull align 8 dereferenceable(570) %101, i8 signext 10)
  br label %117

117:                                              ; preds = %108, %111
  %118 = phi i8 [ %110, %108 ], [ %116, %111 ]
  %119 = call nonnull align 8 dereferenceable(8) %"class.std::basic_ostream"* @_ZNSo3putEc(%"class.std::basic_ostream"* nonnull align 8 dereferenceable(8) %91, i8 signext %118)
  %120 = call nonnull align 8 dereferenceable(8) %"class.std::basic_ostream"* @_ZNSo5flushEv(%"class.std::basic_ostream"* nonnull align 8 dereferenceable(8) %119)
  %121 = add nuw nsw i32 %35, 1
  %122 = load i32, i32* %1, align 4, !tbaa !16
  %123 = icmp slt i32 %35, %122
  br i1 %123, label %34, label %124, !llvm.loop !20

124:                                              ; preds = %117, %29
  call void @llvm.lifetime.end.p0i8(i64 81, i8* nonnull %4) #8
  call void @llvm.lifetime.end.p0i8(i64 4, i8* nonnull %3) #8
  ret i32 0
}

; Function Attrs: argmemonly mustprogress nofree nosync nounwind willreturn
declare void @llvm.lifetime.start.p0i8(i64 immarg, i8* nocapture) #4

declare nonnull align 8 dereferenceable(16) %"class.std::basic_istream"* @_ZNSirsERi(%"class.std::basic_istream"* nonnull align 8 dereferenceable(16), i32* nonnull align 4 dereferenceable(4)) local_unnamed_addr #0

; Function Attrs: argmemonly mustprogress nofree nounwind readonly willreturn
declare i64 @strlen(i8* nocapture) local_unnamed_addr #5

declare nonnull align 8 dereferenceable(8) %"class.std::basic_ostream"* @_ZNSolsEi(%"class.std::basic_ostream"* nonnull align 8 dereferenceable(8), i32) local_unnamed_addr #0

; Function Attrs: argmemonly mustprogress nofree nosync nounwind willreturn
declare void @llvm.lifetime.end.p0i8(i64 immarg, i8* nocapture) #4

declare nonnull align 8 dereferenceable(16) %"class.std::basic_istream"* @_ZNSi7getlineEPclc(%"class.std::basic_istream"* nonnull align 8 dereferenceable(16), i8*, i64, i8 signext) local_unnamed_addr #0

; Function Attrs: noreturn
declare void @_ZSt16__throw_bad_castv() local_unnamed_addr #6

declare void @_ZNKSt5ctypeIcE13_M_widen_initEv(%"class.std::ctype"* nonnull align 8 dereferenceable(570)) local_unnamed_addr #0

declare nonnull align 8 dereferenceable(8) %"class.std::basic_ostream"* @_ZNSo3putEc(%"class.std::basic_ostream"* nonnull align 8 dereferenceable(8), i8 signext) local_unnamed_addr #0

declare nonnull align 8 dereferenceable(8) %"class.std::basic_ostream"* @_ZNSo5flushEv(%"class.std::basic_ostream"* nonnull align 8 dereferenceable(8)) local_unnamed_addr #0

; Function Attrs: sspstrong uwtable
define internal void @_GLOBAL__sub_I_569.cpp() #7 section ".text.startup" {
  tail call void @_ZNSt8ios_base4InitC1Ev(%"class.std::ios_base::Init"* nonnull align 1 dereferenceable(1) @_ZStL8__ioinit)
  %1 = tail call i32 @__cxa_atexit(void (i8*)* bitcast (void (%"class.std::ios_base::Init"*)* @_ZNSt8ios_base4InitD1Ev to void (i8*)*), i8* getelementptr inbounds (%"class.std::ios_base::Init", %"class.std::ios_base::Init"* @_ZStL8__ioinit, i64 0, i32 0), i8* nonnull @__dso_handle) #8
  ret void
}


!llvm.module.flags = !{!0, !1, !2, !3}
!llvm.ident = !{!4}

!0 = !{i32 1, !"wchar_size", i32 4}
!1 = !{i32 7, !"PIC Level", i32 2}
!2 = !{i32 7, !"PIE Level", i32 2}
!3 = !{i32 7, !"uwtable", i32 1}
!4 = !{!"clang version 13.0.0"}
!5 = !{!6, !6, i64 0}
!6 = !{!"vtable pointer", !7, i64 0}
!7 = !{!"Simple C++ TBAA"}
!8 = !{!9, !10, i64 240}
!9 = !{!"_ZTSSt9basic_iosIcSt11char_traitsIcEE", !10, i64 216, !11, i64 224, !12, i64 225, !10, i64 232, !10, i64 240, !10, i64 248, !10, i64 256}
!10 = !{!"any pointer", !11, i64 0}
!11 = !{!"omnipotent char", !7, i64 0}
!12 = !{!"bool", !11, i64 0}
!13 = !{!14, !11, i64 56}
!14 = !{!"_ZTSSt5ctypeIcE", !10, i64 16, !12, i64 24, !10, i64 32, !10, i64 40, !10, i64 48, !11, i64 56, !11, i64 57, !11, i64 313, !11, i64 569}
!15 = !{!11, !11, i64 0}
!16 = !{!17, !17, i64 0}
!17 = !{!"int", !11, i64 0}
!18 = distinct !{!18, !19}
!19 = !{!"llvm.loop.mustprogress"}
!20 = distinct !{!20, !19}
